; Function Attrs: mustprogress uwtable
define dso_local void @_ZN5vcpkg6Checks23msg_check_maybe_upgradeERKNS_8LineInfoEbRKNS_15LocalizedStringE(ptr noundef nonnull align 8 dereferenceable(16) %0, i1 noundef zeroext %1, ptr noundef nonnull align 8 dereferenceable(32) %2) local_unnamed_addr #0 {
  br i1 %1, label %5, label %4

4:                                                ; preds = %3
  tail call void @_ZN5vcpkg6Checks22msg_exit_maybe_upgradeERKNS_8LineInfoERKNS_15LocalizedStringE(ptr noundef nonnull align 8 dereferenceable(16) %0, ptr noundef nonnull align 8 dereferenceable(32) %2) #23
  unreachable

5:                                                ; preds = %3
  ret void
}